target datalayout = "e-m:e-p270:32:32-p271:32:32-p272:64:64-i64:64-i128:128-f80:128-n8:16:32:64-S128"
target triple = "x86_64-pc-linux-gnu"

%struct.asn1_string_st = type { i32, i32, ptr, i64 }

@.str = private unnamed_addr constant [32 x i8] c"../openssl/crypto/x509/v3_utl.c\00", align 1
@__func__.s2i_ASN1_INTEGER = private unnamed_addr constant [17 x i8] c"s2i_ASN1_INTEGER\00", align 1

; Function Attrs: nounwind uwtable
define ptr @s2i_ASN1_INTEGER(ptr noundef %0, ptr noundef %1) #0 {
  %3 = alloca ptr, align 8
  %4 = alloca ptr, align 8
  %5 = alloca ptr, align 8
  %6 = alloca ptr, align 8
  %7 = alloca ptr, align 8
  %8 = alloca i32, align 4
  %9 = alloca i32, align 4
  %10 = alloca i32, align 4
  %11 = alloca i32, align 4
  store ptr %0, ptr %4, align 8, !tbaa !21
  store ptr %1, ptr %5, align 8, !tbaa !3
  call void @llvm.lifetime.start.p0(i64 8, ptr %6) #8
  store ptr null, ptr %6, align 8, !tbaa !25
  call void @llvm.lifetime.start.p0(i64 8, ptr %7) #8
  call void @llvm.lifetime.start.p0(i64 4, ptr %8) #8
  call void @llvm.lifetime.start.p0(i64 4, ptr %9) #8
  call void @llvm.lifetime.start.p0(i64 4, ptr %10) #8
  %12 = load ptr, ptr %5, align 8, !tbaa !3
  %13 = icmp eq ptr %12, null
  br i1 %13, label %14, label %15

14:                                               ; preds = %2
  call void @ERR_new()
  call void @ERR_set_debug(ptr noundef @.str, i32 noundef 204, ptr noundef @__func__.s2i_ASN1_INTEGER)
  call void (i32, i32, ptr, ...) @ERR_set_error(i32 noundef 34, i32 noundef 109, ptr noundef null)
  store ptr null, ptr %3, align 8
  store i32 1, ptr %11, align 4
  br label %99

15:                                               ; preds = %2
  %16 = call ptr @BN_new()
  store ptr %16, ptr %6, align 8, !tbaa !25
  %17 = load ptr, ptr %6, align 8, !tbaa !25
  %18 = icmp eq ptr %17, null
  br i1 %18, label %19, label %20

19:                                               ; preds = %15
  call void @ERR_new()
  call void @ERR_set_debug(ptr noundef @.str, i32 noundef 209, ptr noundef @__func__.s2i_ASN1_INTEGER)
  call void (i32, i32, ptr, ...) @ERR_set_error(i32 noundef 34, i32 noundef 524291, ptr noundef null)
  store ptr null, ptr %3, align 8
  store i32 1, ptr %11, align 4
  br label %99

20:                                               ; preds = %15
  %21 = load ptr, ptr %5, align 8, !tbaa !3
  %22 = getelementptr inbounds i8, ptr %21, i64 0
  %23 = load i8, ptr %22, align 1, !tbaa !27
  %24 = sext i8 %23 to i32
  %25 = icmp eq i32 %24, 45
  br i1 %25, label %26, label %29

26:                                               ; preds = %20
  %27 = load ptr, ptr %5, align 8, !tbaa !3
  %28 = getelementptr inbounds nuw i8, ptr %27, i32 1
  store ptr %28, ptr %5, align 8, !tbaa !3
  store i32 1, ptr %8, align 4, !tbaa !15
  br label %30

29:                                               ; preds = %20
  store i32 0, ptr %8, align 4, !tbaa !15
  br label %30

30:                                               ; preds = %29, %26
  %31 = load ptr, ptr %5, align 8, !tbaa !3
  %32 = getelementptr inbounds i8, ptr %31, i64 0
  %33 = load i8, ptr %32, align 1, !tbaa !27
  %34 = sext i8 %33 to i32
  %35 = icmp eq i32 %34, 48
  br i1 %35, label %36, label %51

36:                                               ; preds = %30
  %37 = load ptr, ptr %5, align 8, !tbaa !3
  %38 = getelementptr inbounds i8, ptr %37, i64 1
  %39 = load i8, ptr %38, align 1, !tbaa !27
  %40 = sext i8 %39 to i32
  %41 = icmp eq i32 %40, 120
  br i1 %41, label %48, label %42

42:                                               ; preds = %36
  %43 = load ptr, ptr %5, align 8, !tbaa !3
  %44 = getelementptr inbounds i8, ptr %43, i64 1
  %45 = load i8, ptr %44, align 1, !tbaa !27
  %46 = sext i8 %45 to i32
  %47 = icmp eq i32 %46, 88
  br i1 %47, label %48, label %51

48:                                               ; preds = %42, %36
  %49 = load ptr, ptr %5, align 8, !tbaa !3
  %50 = getelementptr inbounds i8, ptr %49, i64 2
  store ptr %50, ptr %5, align 8, !tbaa !3
  store i32 1, ptr %9, align 4, !tbaa !15
  br label %52

51:                                               ; preds = %42, %30
  store i32 0, ptr %9, align 4, !tbaa !15
  br label %52

52:                                               ; preds = %51, %48
  %53 = load i32, ptr %9, align 4, !tbaa !15
  %54 = icmp ne i32 %53, 0
  br i1 %54, label %55, label %58

55:                                               ; preds = %52
  %56 = load ptr, ptr %5, align 8, !tbaa !3
  %57 = call i32 @BN_hex2bn(ptr noundef %6, ptr noundef %56)
  store i32 %57, ptr %10, align 4, !tbaa !15
  br label %61

58:                                               ; preds = %52
  %59 = load ptr, ptr %5, align 8, !tbaa !3
  %60 = call i32 @BN_dec2bn(ptr noundef %6, ptr noundef %59)
  store i32 %60, ptr %10, align 4, !tbaa !15
  br label %61

61:                                               ; preds = %58, %55
  %62 = load i32, ptr %10, align 4, !tbaa !15
  %63 = icmp ne i32 %62, 0
  br i1 %63, label %64, label %72

64:                                               ; preds = %61
  %65 = load ptr, ptr %5, align 8, !tbaa !3
  %66 = load i32, ptr %10, align 4, !tbaa !15
  %67 = sext i32 %66 to i64
  %68 = getelementptr inbounds i8, ptr %65, i64 %67
  %69 = load i8, ptr %68, align 1, !tbaa !27
  %70 = sext i8 %69 to i32
  %71 = icmp ne i32 %70, 0
  br i1 %71, label %72, label %74

72:                                               ; preds = %64, %61
  %73 = load ptr, ptr %6, align 8, !tbaa !25
  call void @BN_free(ptr noundef %73)
  call void @ERR_new()
  call void @ERR_set_debug(ptr noundef @.str, i32 noundef 233, ptr noundef @__func__.s2i_ASN1_INTEGER)
  call void (i32, i32, ptr, ...) @ERR_set_error(i32 noundef 34, i32 noundef 100, ptr noundef null)
  store ptr null, ptr %3, align 8
  store i32 1, ptr %11, align 4
  br label %99

74:                                               ; preds = %64
  %75 = load i32, ptr %8, align 4, !tbaa !15
  %76 = icmp ne i32 %75, 0
  br i1 %76, label %77, label %82

77:                                               ; preds = %74
  %78 = load ptr, ptr %6, align 8, !tbaa !25
  %79 = call i32 @BN_is_zero(ptr noundef %78)
  %80 = icmp ne i32 %79, 0
  br i1 %80, label %81, label %82

81:                                               ; preds = %77
  store i32 0, ptr %8, align 4, !tbaa !15
  br label %82

82:                                               ; preds = %81, %77, %74
  %83 = load ptr, ptr %6, align 8, !tbaa !25
  %84 = call ptr @BN_to_ASN1_INTEGER(ptr noundef %83, ptr noundef null)
  store ptr %84, ptr %7, align 8, !tbaa !23
  %85 = load ptr, ptr %6, align 8, !tbaa !25
  call void @BN_free(ptr noundef %85)
  %86 = load ptr, ptr %7, align 8, !tbaa !23
  %87 = icmp ne ptr %86, null
  br i1 %87, label %89, label %88

88:                                               ; preds = %82
  call void @ERR_new()
  call void @ERR_set_debug(ptr noundef @.str, i32 noundef 243, ptr noundef @__func__.s2i_ASN1_INTEGER)
  call void (i32, i32, ptr, ...) @ERR_set_error(i32 noundef 34, i32 noundef 101, ptr noundef null)
  store ptr null, ptr %3, align 8
  store i32 1, ptr %11, align 4
  br label %99

89:                                               ; preds = %82
  %90 = load i32, ptr %8, align 4, !tbaa !15
  %91 = icmp ne i32 %90, 0
  br i1 %91, label %92, label %97

92:                                               ; preds = %89
  %93 = load ptr, ptr %7, align 8, !tbaa !23
  %94 = getelementptr inbounds nuw %struct.asn1_string_st, ptr %93, i32 0, i32 1
  %95 = load i32, ptr %94, align 4, !tbaa !28
  %96 = or i32 %95, 256
  store i32 %96, ptr %94, align 4, !tbaa !28
  br label %97

97:                                               ; preds = %92, %89
  %98 = load ptr, ptr %7, align 8, !tbaa !23
  store ptr %98, ptr %3, align 8
  store i32 1, ptr %11, align 4
  br label %99

99:                                               ; preds = %97, %88, %72, %19, %14
  call void @llvm.lifetime.end.p0(i64 4, ptr %10) #8
  call void @llvm.lifetime.end.p0(i64 4, ptr %9) #8
  call void @llvm.lifetime.end.p0(i64 4, ptr %8) #8
  call void @llvm.lifetime.end.p0(i64 8, ptr %7) #8
  call void @llvm.lifetime.end.p0(i64 8, ptr %6) #8
  %100 = load ptr, ptr %3, align 8
  ret ptr %100
}