; Function Attrs: nounwind uwtable
define ptr @s2i_ASN1_INTEGER(ptr readnone captures(none) %0, ptr noundef %1) local_unnamed_addr #0 {
  %3 = alloca ptr, align 8
  call void @llvm.lifetime.start.p0(i64 8, ptr nonnull %3) #12
  %4 = icmp eq ptr %1, null
  br i1 %4, label %5, label %6

5:                                                ; preds = %2
  tail call void @ERR_new() #12
  tail call void @ERR_set_debug(ptr noundef nonnull @.str, i32 noundef 204, ptr noundef nonnull @__func__.s2i_ASN1_INTEGER) #12
  tail call void (i32, i32, ptr, ...) @ERR_set_error(i32 noundef 34, i32 noundef 109, ptr noundef null) #12
  br label %43

6:                                                ; preds = %2
  %7 = tail call ptr @BN_new() #12
  store ptr %7, ptr %3, align 8, !tbaa !14
  %8 = icmp eq ptr %7, null
  br i1 %8, label %9, label %10

9:                                                ; preds = %6
  tail call void @ERR_new() #12
  tail call void @ERR_set_debug(ptr noundef nonnull @.str, i32 noundef 209, ptr noundef nonnull @__func__.s2i_ASN1_INTEGER) #12
  tail call void (i32, i32, ptr, ...) @ERR_set_error(i32 noundef 34, i32 noundef 524291, ptr noundef null) #12
  br label %43

10:                                               ; preds = %6
  %11 = load i8, ptr %1, align 1, !tbaa !13
  %.not29 = icmp eq i8 %11, 45
  %.021.idx = zext i1 %.not29 to i64
  %.021 = getelementptr inbounds nuw i8, ptr %1, i64 %.021.idx
  %12 = load i8, ptr %.021, align 1, !tbaa !13
  %13 = icmp eq i8 %12, 48
  br i1 %13, label %14, label %20

14:                                               ; preds = %10
  %15 = getelementptr inbounds nuw i8, ptr %.021, i64 1
  %16 = load i8, ptr %15, align 1, !tbaa !13
  switch i8 %16, label %20 [
    i8 120, label %17
    i8 88, label %17
  ]

17:                                               ; preds = %14, %14
  %18 = getelementptr inbounds nuw i8, ptr %.021, i64 2
  %19 = call i32 @BN_hex2bn(ptr noundef nonnull %3, ptr noundef nonnull %18) #12
  br label %22

20:                                               ; preds = %14, %10
  %21 = call i32 @BN_dec2bn(ptr noundef nonnull %3, ptr noundef nonnull %.021) #12
  br label %22

22:                                               ; preds = %20, %17
  %.12235 = phi ptr [ %18, %17 ], [ %.021, %20 ]
  %.0 = phi i32 [ %19, %17 ], [ %21, %20 ]
  %.not26 = icmp eq i32 %.0, 0
  br i1 %.not26, label %27, label %23

23:                                               ; preds = %22
  %24 = sext i32 %.0 to i64
  %25 = getelementptr inbounds i8, ptr %.12235, i64 %24
  %26 = load i8, ptr %25, align 1, !tbaa !13
  %.not27 = icmp eq i8 %26, 0
  br i1 %.not27, label %29, label %27

27:                                               ; preds = %23, %22
  %28 = load ptr, ptr %3, align 8, !tbaa !14
  call void @BN_free(ptr noundef %28) #12
  call void @ERR_new() #12
  call void @ERR_set_debug(ptr noundef nonnull @.str, i32 noundef 233, ptr noundef nonnull @__func__.s2i_ASN1_INTEGER) #12
  call void (i32, i32, ptr, ...) @ERR_set_error(i32 noundef 34, i32 noundef 100, ptr noundef null) #12
  br label %43

29:                                               ; preds = %23
  br i1 %.not29, label %30, label %33

30:                                               ; preds = %29
  %31 = load ptr, ptr %3, align 8, !tbaa !14
  %32 = call i32 @BN_is_zero(ptr noundef %31) #12
  %.not30 = icmp ne i32 %32, 0
  br label %33

33:                                               ; preds = %30, %29
  %.not32 = phi i1 [ true, %29 ], [ %.not30, %30 ]
  %34 = load ptr, ptr %3, align 8, !tbaa !14
  %35 = call ptr @BN_to_ASN1_INTEGER(ptr noundef %34, ptr noundef null) #12
  %36 = load ptr, ptr %3, align 8, !tbaa !14
  call void @BN_free(ptr noundef %36) #12
  %.not31 = icmp eq ptr %35, null
  br i1 %.not31, label %37, label %38

37:                                               ; preds = %33
  call void @ERR_new() #12
  call void @ERR_set_debug(ptr noundef nonnull @.str, i32 noundef 243, ptr noundef nonnull @__func__.s2i_ASN1_INTEGER) #12
  call void (i32, i32, ptr, ...) @ERR_set_error(i32 noundef 34, i32 noundef 101, ptr noundef null) #12
  br label %43

38:                                               ; preds = %33
  br i1 %.not32, label %43, label %39

39:                                               ; preds = %38
  %40 = getelementptr inbounds nuw i8, ptr %35, i64 4
  %41 = load i32, ptr %40, align 4, !tbaa !16
  %42 = or i32 %41, 256
  store i32 %42, ptr %40, align 4, !tbaa !16
  br label %43

43:                                               ; preds = %38, %39, %37, %27, %9, %5
  %.020 = phi ptr [ null, %5 ], [ null, %9 ], [ null, %27 ], [ null, %37 ], [ %35, %39 ], [ %35, %38 ]
  call void @llvm.lifetime.end.p0(i64 8, ptr nonnull %3) #12
  ret ptr %.020
}